; Function Attrs: nounwind uwtable
define dso_local i32 @cbuf_used(ptr noundef %0) local_unnamed_addr #0 {
  %2 = tail call i32 @pthread_mutex_lock(ptr noundef %0) #15
  %.not = icmp eq i32 %2, 0
  br i1 %.not, label %5, label %3

3:                                                ; preds = %1
  %4 = tail call ptr @__errno_location() #14
  store i32 %2, ptr %4, align 4
  tail call void (ptr, ...) @fatal_abort(ptr noundef nonnull @.str.2, ptr noundef nonnull @__func__.cbuf_used) #16
  unreachable

5:                                                ; preds = %1
  %6 = getelementptr inbounds nuw i8, ptr %0, i64 56
  %7 = load i32, ptr %6, align 8
  %8 = tail call i32 @pthread_mutex_unlock(ptr noundef %0) #15
  %.not8 = icmp eq i32 %8, 0
  br i1 %.not8, label %11, label %9

9:                                                ; preds = %5
  %10 = tail call ptr @__errno_location() #14
  store i32 %8, ptr %10, align 4
  tail call void (ptr, ...) @fatal_abort(ptr noundef nonnull @.str.3, ptr noundef nonnull @__func__.cbuf_used) #16
  unreachable

11:                                               ; preds = %5
  ret i32 %7
}